; Function Attrs: uwtable
define range(i32 -4, 1) i32 @faiss_IndexIVF_train_encoder(ptr noundef %0, i64 noundef %1, ptr noundef %2, ptr noundef %3) local_unnamed_addr #6 personality ptr @__gxx_personality_v0 {
  %5 = alloca %"class.std::__exception_ptr::exception_ptr", align 8
  %6 = alloca %"class.std::__exception_ptr::exception_ptr", align 8
  %7 = alloca %"class.std::__exception_ptr::exception_ptr", align 8
  %8 = alloca %"class.std::__exception_ptr::exception_ptr", align 8
  %9 = alloca %"class.std::runtime_error", align 8
  %10 = alloca %"class.std::__exception_ptr::exception_ptr", align 8
  %11 = alloca %"class.std::exception", align 8
  %12 = alloca %"class.std::__exception_ptr::exception_ptr", align 8
  %13 = alloca %"class.faiss::FaissException", align 8
  %14 = load ptr, ptr %0, align 8, !tbaa !3
  %15 = getelementptr inbounds nuw i8, ptr %14, i64 200
  %16 = load ptr, ptr %15, align 8
  invoke void %16(ptr noundef nonnull align 8 dereferenceable(265) %0, i64 noundef %1, ptr noundef %2, ptr noundef %3)
          to label %52 unwind label %17

17:                                               ; preds = %4
  %18 = landingpad { ptr, i32 }
          catch ptr @_ZTIN5faiss14FaissExceptionE
          catch ptr @_ZTISt9exception
          catch ptr null
  %19 = extractvalue { ptr, i32 } %18, 0
  %20 = extractvalue { ptr, i32 } %18, 1
  %21 = tail call i32 @llvm.eh.typeid.for.p0(ptr nonnull @_ZTIN5faiss14FaissExceptionE) #24
  %22 = icmp eq i32 %20, %21
  br i1 %22, label %23, label %31

23:                                               ; preds = %17
  %24 = tail call ptr @__cxa_begin_catch(ptr %19) #24
  call void @llvm.lifetime.start.p0(i64 8, ptr nonnull %12) #24
  invoke void @_ZN5faiss14FaissExceptionC2ERKS0_(ptr noundef nonnull align 8 dereferenceable(40) %13, ptr noundef nonnull align 8 dereferenceable(40) %24)
          to label %25 unwind label %50

25:                                               ; preds = %23
  call void @_ZSt18make_exception_ptrIN5faiss14FaissExceptionEENSt15__exception_ptr13exception_ptrET_(ptr dead_on_unwind nonnull writable sret(%"class.std::__exception_ptr::exception_ptr") align 8 %12, ptr noundef nonnull %13) #24
  %.not.i = icmp eq ptr @_ZTH20faiss_last_exception, null
  br i1 %.not.i, label %_ZTW20faiss_last_exception.exit, label %26

26:                                               ; preds = %25
  call void @_ZTH20faiss_last_exception()
  br label %_ZTW20faiss_last_exception.exit

_ZTW20faiss_last_exception.exit:                  ; preds = %25, %26
  %27 = call noundef align 8 ptr @llvm.threadlocal.address.p0(ptr align 8 @faiss_last_exception)
  call void @llvm.lifetime.start.p0(i64 8, ptr nonnull %7) #24
  %28 = load ptr, ptr %12, align 8, !tbaa !17
  store ptr null, ptr %12, align 8, !tbaa !17
  %29 = load ptr, ptr %27, align 8, !tbaa !17
  store ptr %29, ptr %7, align 8, !tbaa !17
  store ptr %28, ptr %27, align 8, !tbaa !17
  %.not.i.i = icmp eq ptr %29, null
  br i1 %.not.i.i, label %_ZNSt15__exception_ptr13exception_ptraSEOS0_.exit.thread, label %_ZNSt15__exception_ptr13exception_ptraSEOS0_.exit

_ZNSt15__exception_ptr13exception_ptraSEOS0_.exit.thread: ; preds = %_ZTW20faiss_last_exception.exit
  call void @llvm.lifetime.end.p0(i64 8, ptr nonnull %7) #24
  br label %_ZNSt15__exception_ptr13exception_ptrD2Ev.exit

_ZNSt15__exception_ptr13exception_ptraSEOS0_.exit: ; preds = %_ZTW20faiss_last_exception.exit
  call void @_ZNSt15__exception_ptr13exception_ptr10_M_releaseEv(ptr noundef nonnull align 8 dereferenceable(8) %7) #24
  %.pr = load ptr, ptr %12, align 8, !tbaa !17
  call void @llvm.lifetime.end.p0(i64 8, ptr nonnull %7) #24
  %.not.i16 = icmp eq ptr %.pr, null
  br i1 %.not.i16, label %_ZNSt15__exception_ptr13exception_ptrD2Ev.exit, label %30

30:                                               ; preds = %_ZNSt15__exception_ptr13exception_ptraSEOS0_.exit
  call void @_ZNSt15__exception_ptr13exception_ptr10_M_releaseEv(ptr noundef nonnull align 8 dereferenceable(8) %12) #24
  br label %_ZNSt15__exception_ptr13exception_ptrD2Ev.exit

_ZNSt15__exception_ptr13exception_ptrD2Ev.exit:   ; preds = %_ZNSt15__exception_ptr13exception_ptraSEOS0_.exit.thread, %_ZNSt15__exception_ptr13exception_ptraSEOS0_.exit, %30
  call void @_ZN5faiss14FaissExceptionD2Ev(ptr noundef nonnull align 8 dereferenceable(40) %13) #24
  call void @llvm.lifetime.end.p0(i64 8, ptr nonnull %12) #24
  br label %.sink.split

31:                                               ; preds = %17
  %32 = tail call i32 @llvm.eh.typeid.for.p0(ptr nonnull @_ZTISt9exception) #24
  %33 = icmp eq i32 %20, %32
  %34 = tail call ptr @__cxa_begin_catch(ptr %19) #24
  br i1 %33, label %35, label %41

35:                                               ; preds = %31
  call void @llvm.lifetime.start.p0(i64 8, ptr nonnull %10) #24
  store ptr getelementptr inbounds nuw inrange(-16, 24) (i8, ptr @_ZTVSt9exception, i64 16), ptr %11, align 8, !tbaa !3
  call void @_ZSt18make_exception_ptrISt9exceptionENSt15__exception_ptr13exception_ptrET_(ptr dead_on_unwind nonnull writable sret(%"class.std::__exception_ptr::exception_ptr") align 8 %10, ptr noundef nonnull %11) #24
  %.not.i17 = icmp eq ptr @_ZTH20faiss_last_exception, null
  br i1 %.not.i17, label %_ZTW20faiss_last_exception.exit18, label %36

36:                                               ; preds = %35
  call void @_ZTH20faiss_last_exception()
  br label %_ZTW20faiss_last_exception.exit18

_ZTW20faiss_last_exception.exit18:                ; preds = %35, %36
  %37 = call noundef align 8 ptr @llvm.threadlocal.address.p0(ptr align 8 @faiss_last_exception)
  call void @llvm.lifetime.start.p0(i64 8, ptr nonnull %6) #24
  %38 = load ptr, ptr %10, align 8, !tbaa !17
  store ptr null, ptr %10, align 8, !tbaa !17
  %39 = load ptr, ptr %37, align 8, !tbaa !17
  store ptr %39, ptr %6, align 8, !tbaa !17
  store ptr %38, ptr %37, align 8, !tbaa !17
  %.not.i.i19 = icmp eq ptr %39, null
  br i1 %.not.i.i19, label %_ZNSt15__exception_ptr13exception_ptraSEOS0_.exit20.thread, label %_ZNSt15__exception_ptr13exception_ptraSEOS0_.exit20

_ZNSt15__exception_ptr13exception_ptraSEOS0_.exit20.thread: ; preds = %_ZTW20faiss_last_exception.exit18
  call void @llvm.lifetime.end.p0(i64 8, ptr nonnull %6) #24
  br label %_ZNSt15__exception_ptr13exception_ptrD2Ev.exit22

_ZNSt15__exception_ptr13exception_ptraSEOS0_.exit20: ; preds = %_ZTW20faiss_last_exception.exit18
  call void @_ZNSt15__exception_ptr13exception_ptr10_M_releaseEv(ptr noundef nonnull align 8 dereferenceable(8) %6) #24
  %.pr30 = load ptr, ptr %10, align 8, !tbaa !17
  call void @llvm.lifetime.end.p0(i64 8, ptr nonnull %6) #24
  %.not.i21 = icmp eq ptr %.pr30, null
  br i1 %.not.i21, label %_ZNSt15__exception_ptr13exception_ptrD2Ev.exit22, label %40

40:                                               ; preds = %_ZNSt15__exception_ptr13exception_ptraSEOS0_.exit20
  call void @_ZNSt15__exception_ptr13exception_ptr10_M_releaseEv(ptr noundef nonnull align 8 dereferenceable(8) %10) #24
  br label %_ZNSt15__exception_ptr13exception_ptrD2Ev.exit22

_ZNSt15__exception_ptr13exception_ptrD2Ev.exit22: ; preds = %_ZNSt15__exception_ptr13exception_ptraSEOS0_.exit20.thread, %_ZNSt15__exception_ptr13exception_ptraSEOS0_.exit20, %40
  call void @_ZNSt9exceptionD1Ev(ptr noundef nonnull align 8 dereferenceable(8) %11) #24
  call void @llvm.lifetime.end.p0(i64 8, ptr nonnull %10) #24
  br label %.sink.split

41:                                               ; preds = %31
  call void @llvm.lifetime.start.p0(i64 8, ptr nonnull %8) #24
  invoke void @_ZNSt13runtime_errorC1EPKc(ptr noundef nonnull align 8 dereferenceable(16) %9, ptr noundef nonnull @.str)
          to label %42 unwind label %48

42:                                               ; preds = %41
  call void @_ZSt18make_exception_ptrISt13runtime_errorENSt15__exception_ptr13exception_ptrET_(ptr dead_on_unwind nonnull writable sret(%"class.std::__exception_ptr::exception_ptr") align 8 %8, ptr noundef nonnull %9) #24
  %.not.i23 = icmp eq ptr @_ZTH20faiss_last_exception, null
  br i1 %.not.i23, label %_ZTW20faiss_last_exception.exit24, label %43

43:                                               ; preds = %42
  call void @_ZTH20faiss_last_exception()
  br label %_ZTW20faiss_last_exception.exit24

_ZTW20faiss_last_exception.exit24:                ; preds = %42, %43
  %44 = call noundef align 8 ptr @llvm.threadlocal.address.p0(ptr align 8 @faiss_last_exception)
  call void @llvm.lifetime.start.p0(i64 8, ptr nonnull %5) #24
  %45 = load ptr, ptr %8, align 8, !tbaa !17
  store ptr null, ptr %8, align 8, !tbaa !17
  %46 = load ptr, ptr %44, align 8, !tbaa !17
  store ptr %46, ptr %5, align 8, !tbaa !17
  store ptr %45, ptr %44, align 8, !tbaa !17
  %.not.i.i25 = icmp eq ptr %46, null
  br i1 %.not.i.i25, label %_ZNSt15__exception_ptr13exception_ptraSEOS0_.exit26.thread, label %_ZNSt15__exception_ptr13exception_ptraSEOS0_.exit26

_ZNSt15__exception_ptr13exception_ptraSEOS0_.exit26.thread: ; preds = %_ZTW20faiss_last_exception.exit24
  call void @llvm.lifetime.end.p0(i64 8, ptr nonnull %5) #24
  br label %_ZNSt15__exception_ptr13exception_ptrD2Ev.exit28

_ZNSt15__exception_ptr13exception_ptraSEOS0_.exit26: ; preds = %_ZTW20faiss_last_exception.exit24
  call void @_ZNSt15__exception_ptr13exception_ptr10_M_releaseEv(ptr noundef nonnull align 8 dereferenceable(8) %5) #24
  %.pr32 = load ptr, ptr %8, align 8, !tbaa !17
  call void @llvm.lifetime.end.p0(i64 8, ptr nonnull %5) #24
  %.not.i27 = icmp eq ptr %.pr32, null
  br i1 %.not.i27, label %_ZNSt15__exception_ptr13exception_ptrD2Ev.exit28, label %47

47:                                               ; preds = %_ZNSt15__exception_ptr13exception_ptraSEOS0_.exit26
  call void @_ZNSt15__exception_ptr13exception_ptr10_M_releaseEv(ptr noundef nonnull align 8 dereferenceable(8) %8) #24
  br label %_ZNSt15__exception_ptr13exception_ptrD2Ev.exit28

_ZNSt15__exception_ptr13exception_ptrD2Ev.exit28: ; preds = %_ZNSt15__exception_ptr13exception_ptraSEOS0_.exit26.thread, %_ZNSt15__exception_ptr13exception_ptraSEOS0_.exit26, %47
  call void @_ZNSt13runtime_errorD1Ev(ptr noundef nonnull align 8 dereferenceable(16) %9) #24
  call void @llvm.lifetime.end.p0(i64 8, ptr nonnull %8) #24
  br label %.sink.split

48:                                               ; preds = %41
  %49 = landingpad { ptr, i32 }
          cleanup
  call void @llvm.lifetime.end.p0(i64 8, ptr nonnull %8) #24
  invoke void @__cxa_end_catch()
          to label %53 unwind label %54

50:                                               ; preds = %23
  %51 = landingpad { ptr, i32 }
          cleanup
  call void @llvm.lifetime.end.p0(i64 8, ptr nonnull %12) #24
  invoke void @__cxa_end_catch()
          to label %53 unwind label %54

.sink.split:                                      ; preds = %_ZNSt15__exception_ptr13exception_ptrD2Ev.exit, %_ZNSt15__exception_ptr13exception_ptrD2Ev.exit22, %_ZNSt15__exception_ptr13exception_ptrD2Ev.exit28
  %.0.ph = phi i32 [ -1, %_ZNSt15__exception_ptr13exception_ptrD2Ev.exit28 ], [ -4, %_ZNSt15__exception_ptr13exception_ptrD2Ev.exit22 ], [ -2, %_ZNSt15__exception_ptr13exception_ptrD2Ev.exit ]
  call void @__cxa_end_catch()
  br label %52

52:                                               ; preds = %.sink.split, %4
  %.0 = phi i32 [ 0, %4 ], [ %.0.ph, %.sink.split ]
  ret i32 %.0

53:                                               ; preds = %50, %48
  %.pn = phi { ptr, i32 } [ %49, %48 ], [ %51, %50 ]
  resume { ptr, i32 } %.pn

54:                                               ; preds = %50, %48
  %55 = landingpad { ptr, i32 }
          catch ptr null
  %56 = extractvalue { ptr, i32 } %55, 0
  call void @__clang_call_terminate(ptr %56) #26
  unreachable
}